target datalayout = "e-m:e-p270:32:32-p271:32:32-p272:64:64-i64:64-i128:128-f80:128-n8:16:32:64-S128"
target triple = "x86_64-pc-linux-gnu"

%struct._zend_array = type { %struct._zend_refcounted_h, %union.anon.4, i32, %union.anon.6, i32, i32, i32, i32, i64, ptr }
%struct._zend_refcounted_h = type { i32, %union.anon.3 }
%union.anon.3 = type { i32 }
%union.anon.4 = type { i32 }
%union.anon.6 = type { ptr }
%struct._zval_struct = type { %union._zend_value, %union.anon, %union.anon.2 }
%union._zend_value = type { i64 }
%union.anon = type { i32 }
%union.anon.2 = type { i32 }
%struct._zend_attribute = type { ptr, ptr, i32, i32, i32, i32, [1 x %struct.zend_attribute_arg] }
%struct.zend_attribute_arg = type { ptr, %struct._zval_struct }
%struct._zend_string = type { %struct._zend_refcounted_h, i64, i64, [1 x i8] }
%struct._zend_class_entry = type { i8, ptr, %union.anon.7, i32, i32, i32, i32, ptr, ptr, ptr, %struct._zend_array, %struct._zend_array, %struct._zend_array, ptr, ptr, ptr, ptr, ptr, ptr, ptr, ptr, ptr, ptr, ptr, ptr, ptr, ptr, ptr, ptr, ptr, ptr, ptr, %union.anon.8, ptr, ptr, ptr, ptr, i32, i32, %union.anon.9, ptr, ptr, ptr, ptr, i32, ptr, ptr, %union.anon.10 }
%union.anon.7 = type { ptr }
%union.anon.8 = type { ptr }
%union.anon.9 = type { ptr }
%union.anon.10 = type { %struct.anon.11 }
%struct.anon.11 = type { ptr, i32, i32 }
%struct._zend_internal_attribute = type { ptr, i32, ptr }

@.str.3 = private unnamed_addr constant [62 x i8] c"Only internal classes can be registered as compiler attribute\00", align 1
@zend_ce_attribute = global ptr null, align 8
@internal_attributes = internal global %struct._zend_array zeroinitializer, align 8
@.str.4 = private unnamed_addr constant [105 x i8] c"Classes must be first marked as attribute before being able to be registered as internal attribute class\00", align 1

; Function Attrs: nounwind uwtable
define ptr @zend_mark_internal_attribute(ptr noundef %0) #0 {
  %2 = alloca ptr, align 8
  %3 = alloca ptr, align 8
  %4 = alloca ptr, align 8
  %5 = alloca i32, align 4
  %6 = alloca i32, align 4
  %7 = alloca ptr, align 8
  %8 = alloca ptr, align 8
  %9 = alloca ptr, align 8
  %10 = alloca ptr, align 8
  %11 = alloca %struct._zval_struct, align 8
  %12 = alloca ptr, align 8
  %13 = alloca ptr, align 8
  %14 = alloca ptr, align 8
  %15 = alloca ptr, align 8
  %16 = alloca ptr, align 8
  %17 = alloca ptr, align 8
  %18 = alloca ptr, align 8
  %19 = alloca ptr, align 8
  %20 = alloca i32, align 4
  %21 = alloca i64, align 8
  %22 = alloca ptr, align 8
  %23 = alloca ptr, align 8
  store ptr %0, ptr %16, align 8
  %24 = load ptr, ptr %16, align 8
  %25 = getelementptr inbounds %struct._zend_class_entry, ptr %24, i32 0, i32 0
  %26 = load i8, ptr %25, align 8
  %27 = sext i8 %26 to i32
  %28 = icmp ne i32 %27, 1
  br i1 %28, label %29, label %30

29:                                               ; preds = %1
  call void (i32, ptr, ...) @zend_error_noreturn(i32 noundef 1, ptr noundef @.str.3) #11
  unreachable

30:                                               ; preds = %1
  br label %31

31:                                               ; preds = %30
  %32 = load ptr, ptr %16, align 8
  %33 = getelementptr inbounds %struct._zend_class_entry, ptr %32, i32 0, i32 43
  %34 = load ptr, ptr %33, align 8
  store ptr %34, ptr %19, align 8
  %35 = load ptr, ptr %19, align 8
  %36 = getelementptr inbounds %struct._zend_array, ptr %35, i32 0, i32 4
  %37 = load i32, ptr %36, align 8
  store i32 %37, ptr %20, align 4
  %38 = load ptr, ptr %19, align 8
  %39 = getelementptr inbounds %struct._zend_array, ptr %38, i32 0, i32 1
  %40 = load i32, ptr %39, align 8
  %41 = xor i32 %40, -1
  %42 = and i32 %41, 4
  %43 = zext i32 %42 to i64
  %44 = mul i64 %43, 4
  %45 = add i64 16, %44
  store i64 %45, ptr %21, align 8
  %46 = load ptr, ptr %19, align 8
  %47 = getelementptr inbounds %struct._zend_array, ptr %46, i32 0, i32 3
  %48 = load ptr, ptr %47, align 8
  store ptr %48, ptr %22, align 8
  br label %49

49:                                               ; preds = %160, %31
  %50 = load i32, ptr %20, align 4
  %51 = icmp ugt i32 %50, 0
  br i1 %51, label %52, label %166

52:                                               ; preds = %49
  %53 = load ptr, ptr %22, align 8
  store ptr %53, ptr %15, align 8
  %54 = load ptr, ptr %15, align 8
  %55 = getelementptr inbounds %struct._zval_struct, ptr %54, i32 0, i32 1
  %56 = load i8, ptr %55, align 8
  %57 = zext i8 %56 to i32
  %58 = icmp eq i32 %57, 0
  %59 = xor i1 %58, true
  %60 = xor i1 %59, true
  %61 = zext i1 %60 to i32
  %62 = sext i32 %61 to i64
  %63 = icmp ne i64 %62, 0
  br i1 %63, label %64, label %65

64:                                               ; preds = %52
  br label %160

65:                                               ; preds = %52
  %66 = load ptr, ptr %22, align 8
  %67 = getelementptr inbounds %struct._zval_struct, ptr %66, i32 0, i32 0
  %68 = load ptr, ptr %67, align 8
  store ptr %68, ptr %18, align 8
  %69 = load ptr, ptr %18, align 8
  %70 = getelementptr inbounds %struct._zend_attribute, ptr %69, i32 0, i32 0
  %71 = load ptr, ptr %70, align 8
  %72 = load ptr, ptr @zend_ce_attribute, align 8
  %73 = getelementptr inbounds %struct._zend_class_entry, ptr %72, i32 0, i32 1
  %74 = load ptr, ptr %73, align 8
  store ptr %71, ptr %13, align 8
  store ptr %74, ptr %14, align 8
  %75 = load ptr, ptr %13, align 8
  %76 = load ptr, ptr %14, align 8
  %77 = icmp eq ptr %75, %76
  br i1 %77, label %94, label %78

78:                                               ; preds = %65
  %79 = load ptr, ptr %13, align 8
  %80 = load ptr, ptr %14, align 8
  store ptr %79, ptr %2, align 8
  store ptr %80, ptr %3, align 8
  %81 = load ptr, ptr %2, align 8
  %82 = getelementptr inbounds %struct._zend_string, ptr %81, i32 0, i32 2
  %83 = load i64, ptr %82, align 8
  %84 = load ptr, ptr %3, align 8
  %85 = getelementptr inbounds %struct._zend_string, ptr %84, i32 0, i32 2
  %86 = load i64, ptr %85, align 8
  %87 = icmp eq i64 %83, %86
  br i1 %87, label %88, label %92

88:                                               ; preds = %78
  %89 = load ptr, ptr %2, align 8
  %90 = load ptr, ptr %3, align 8
  %91 = call zeroext i1 @zend_string_equal_val(ptr noundef %89, ptr noundef %90) #12
  br label %92

92:                                               ; preds = %88, %78
  %93 = phi i1 [ false, %78 ], [ %91, %88 ]
  br label %94

94:                                               ; preds = %92, %65
  %95 = phi i1 [ true, %65 ], [ %93, %92 ]
  br i1 %95, label %96, label %159

96:                                               ; preds = %94
  %97 = call noalias ptr @__zend_malloc(i64 noundef 24) #16
  store ptr %97, ptr %17, align 8
  %98 = load ptr, ptr %16, align 8
  %99 = load ptr, ptr %17, align 8
  %100 = getelementptr inbounds %struct._zend_internal_attribute, ptr %99, i32 0, i32 0
  store ptr %98, ptr %100, align 8
  %101 = load ptr, ptr %18, align 8
  %102 = getelementptr inbounds %struct._zend_attribute, ptr %101, i32 0, i32 6
  %103 = getelementptr inbounds [1 x %struct.zend_attribute_arg], ptr %102, i64 0, i64 0
  %104 = getelementptr inbounds %struct.zend_attribute_arg, ptr %103, i32 0, i32 1
  %105 = getelementptr inbounds %struct._zval_struct, ptr %104, i32 0, i32 0
  %106 = load i64, ptr %105, align 8
  %107 = trunc i64 %106 to i32
  %108 = load ptr, ptr %17, align 8
  %109 = getelementptr inbounds %struct._zend_internal_attribute, ptr %108, i32 0, i32 1
  store i32 %107, ptr %109, align 8
  %110 = load ptr, ptr %17, align 8
  %111 = getelementptr inbounds %struct._zend_internal_attribute, ptr %110, i32 0, i32 2
  store ptr null, ptr %111, align 8
  %112 = load ptr, ptr %16, align 8
  %113 = getelementptr inbounds %struct._zend_class_entry, ptr %112, i32 0, i32 1
  %114 = load ptr, ptr %113, align 8
  %115 = call ptr @zend_string_tolower_ex(ptr noundef %114, i1 noundef zeroext true)
  store ptr %115, ptr %23, align 8
  %116 = load ptr, ptr %23, align 8
  %117 = load ptr, ptr %17, align 8
  store ptr @internal_attributes, ptr %8, align 8
  store ptr %116, ptr %9, align 8
  store ptr %117, ptr %10, align 8
  %118 = load ptr, ptr %10, align 8
  store ptr %118, ptr %11, align 8
  %119 = getelementptr inbounds %struct._zval_struct, ptr %11, i32 0, i32 1
  store i32 13, ptr %119, align 8
  %120 = load ptr, ptr %8, align 8
  %121 = load ptr, ptr %9, align 8
  %122 = call ptr @zend_hash_update(ptr noundef %120, ptr noundef %121, ptr noundef %11) #12
  store ptr %122, ptr %12, align 8
  %123 = load ptr, ptr %12, align 8
  %124 = load ptr, ptr %123, align 8
  %125 = icmp ne ptr %124, null
  call void @llvm.assume(i1 %125)
  %126 = load ptr, ptr %23, align 8
  store ptr %126, ptr %7, align 8
  %127 = load ptr, ptr %7, align 8
  %128 = getelementptr inbounds %struct._zend_refcounted_h, ptr %127, i32 0, i32 1
  %129 = load i32, ptr %128, align 4
  store i32 %129, ptr %5, align 4
  %130 = load i32, ptr %5, align 4
  %131 = and i32 %130, 1008
  %132 = and i32 %131, 64
  %133 = icmp ne i32 %132, 0
  br i1 %133, label %157, label %134

134:                                              ; preds = %96
  %135 = load ptr, ptr %7, align 8
  store ptr %135, ptr %4, align 8
  %136 = load ptr, ptr %4, align 8
  %137 = load i32, ptr %136, align 4
  %138 = icmp ugt i32 %137, 0
  call void @llvm.assume(i1 %138)
  %139 = load ptr, ptr %4, align 8
  %140 = load i32, ptr %139, align 4
  %141 = add i32 %140, -1
  store i32 %141, ptr %139, align 4
  %142 = icmp eq i32 %141, 0
  br i1 %142, label %143, label %156

143:                                              ; preds = %134
  %144 = load ptr, ptr %7, align 8
  %145 = getelementptr inbounds %struct._zend_refcounted_h, ptr %144, i32 0, i32 1
  %146 = load i32, ptr %145, align 4
  store i32 %146, ptr %6, align 4
  %147 = load i32, ptr %6, align 4
  %148 = and i32 %147, 1008
  %149 = and i32 %148, 128
  %150 = icmp ne i32 %149, 0
  br i1 %150, label %151, label %153

151:                                              ; preds = %143
  %152 = load ptr, ptr %7, align 8
  call void @free(ptr noundef %152) #12
  br label %155

153:                                              ; preds = %143
  %154 = load ptr, ptr %7, align 8
  call void @_efree(ptr noundef %154) #12
  br label %155

155:                                              ; preds = %153, %151
  br label %156

156:                                              ; preds = %155, %134
  br label %157

157:                                              ; preds = %156, %96
  %158 = load ptr, ptr %17, align 8
  ret ptr %158

159:                                              ; preds = %94
  br label %160

160:                                              ; preds = %159, %64
  %161 = load ptr, ptr %22, align 8
  %162 = load i64, ptr %21, align 8
  %163 = getelementptr inbounds i8, ptr %161, i64 %162
  store ptr %163, ptr %22, align 8
  %164 = load i32, ptr %20, align 4
  %165 = add i32 %164, -1
  store i32 %165, ptr %20, align 4
  br label %49

166:                                              ; preds = %49
  br label %167

167:                                              ; preds = %166
  call void (i32, ptr, ...) @zend_error_noreturn(i32 noundef 1, ptr noundef @.str.4) #11
  unreachable
}