; Function Attrs: nounwind uwtable
define noundef ptr @zend_mark_internal_attribute(ptr noundef %0) local_unnamed_addr #0 {
  %2 = alloca %struct._zval_struct, align 8
  %3 = load i8, ptr %0, align 8
  %.not = icmp eq i8 %3, 1
  br i1 %.not, label %5, label %4

4:                                                ; preds = %1
  tail call void (i32, ptr, ...) @zend_error_noreturn(i32 noundef 1, ptr noundef nonnull @.str.3) #17
  unreachable

5:                                                ; preds = %1
  %6 = getelementptr inbounds i8, ptr %0, i64 464
  %7 = load ptr, ptr %6, align 8
  %8 = getelementptr inbounds i8, ptr %7, i64 24
  %9 = load i32, ptr %8, align 8
  %10 = getelementptr inbounds i8, ptr %7, i64 8
  %11 = load i32, ptr %10, align 8
  %12 = shl i32 %11, 2
  %13 = and i32 %12, 16
  %14 = xor i32 %13, 16
  %narrow = add nuw nsw i32 %14, 16
  %15 = zext nneg i32 %narrow to i64
  %.not4851 = icmp eq i32 %9, 0
  br i1 %.not4851, label %._crit_edge, label %.lr.ph.preheader

.lr.ph.preheader:                                 ; preds = %5
  %16 = getelementptr inbounds i8, ptr %7, i64 16
  %17 = load ptr, ptr %16, align 8
  br label %.lr.ph

.lr.ph:                                           ; preds = %.lr.ph.preheader, %.critedge2
  %.053 = phi i32 [ %63, %.critedge2 ], [ %9, %.lr.ph.preheader ]
  %.04552 = phi ptr [ %62, %.critedge2 ], [ %17, %.lr.ph.preheader ]
  %18 = getelementptr inbounds i8, ptr %.04552, i64 8
  %19 = load i8, ptr %18, align 8
  %20 = icmp eq i8 %19, 0
  br i1 %20, label %.critedge2, label %21

21:                                               ; preds = %.lr.ph
  %22 = load ptr, ptr %.04552, align 8
  %23 = load ptr, ptr %22, align 8
  %24 = load ptr, ptr @zend_ce_attribute, align 8
  %25 = getelementptr inbounds i8, ptr %24, i64 8
  %26 = load ptr, ptr %25, align 8
  %27 = icmp eq ptr %23, %26
  br i1 %27, label %.critedge, label %28

28:                                               ; preds = %21
  %29 = getelementptr inbounds i8, ptr %23, i64 16
  %30 = load i64, ptr %29, align 8
  %31 = getelementptr inbounds i8, ptr %26, i64 16
  %32 = load i64, ptr %31, align 8
  %33 = icmp eq i64 %30, %32
  br i1 %33, label %34, label %.critedge2

34:                                               ; preds = %28
  %35 = tail call zeroext i1 @zend_string_equal_val(ptr noundef nonnull %23, ptr noundef nonnull %26) #16
  br i1 %35, label %.critedge, label %.critedge2

.critedge:                                        ; preds = %21, %34
  %36 = tail call noalias dereferenceable_or_null(24) ptr @__zend_malloc(i64 noundef 24) #20
  store ptr %0, ptr %36, align 8
  %37 = getelementptr inbounds i8, ptr %22, i64 40
  %38 = load i64, ptr %37, align 8
  %39 = trunc i64 %38 to i32
  %40 = getelementptr inbounds i8, ptr %36, i64 8
  store i32 %39, ptr %40, align 8
  %41 = getelementptr inbounds i8, ptr %36, i64 16
  store ptr null, ptr %41, align 8
  %42 = getelementptr inbounds i8, ptr %0, i64 8
  %43 = load ptr, ptr %42, align 8
  %44 = tail call ptr @zend_string_tolower_ex(ptr noundef %43, i1 noundef zeroext true) #16
  store ptr %36, ptr %2, align 8
  %45 = getelementptr inbounds i8, ptr %2, i64 8
  store i32 13, ptr %45, align 8
  %46 = call ptr @zend_hash_update(ptr noundef nonnull @internal_attributes, ptr noundef %44, ptr noundef nonnull %2) #16
  %47 = load ptr, ptr %46, align 8
  %48 = icmp ne ptr %47, null
  call void @llvm.assume(i1 %48)
  %49 = getelementptr inbounds i8, ptr %44, i64 4
  %50 = load i32, ptr %49, align 4
  %51 = and i32 %50, 64
  %.not49 = icmp eq i32 %51, 0
  br i1 %.not49, label %52, label %61

52:                                               ; preds = %.critedge
  %53 = load i32, ptr %44, align 4
  %54 = icmp ne i32 %53, 0
  call void @llvm.assume(i1 %54)
  %55 = add i32 %53, -1
  store i32 %55, ptr %44, align 4
  %56 = icmp eq i32 %55, 0
  br i1 %56, label %57, label %61

57:                                               ; preds = %52
  %58 = and i32 %50, 128
  %.not50 = icmp eq i32 %58, 0
  br i1 %.not50, label %60, label %59

59:                                               ; preds = %57
  call void @free(ptr noundef nonnull %44) #16
  br label %61

60:                                               ; preds = %57
  call void @_efree(ptr noundef nonnull %44) #16
  br label %61

61:                                               ; preds = %52, %60, %59, %.critedge
  ret ptr %36

.critedge2:                                       ; preds = %34, %28, %.lr.ph
  %62 = getelementptr inbounds i8, ptr %.04552, i64 %15
  %63 = add i32 %.053, -1
  %.not48 = icmp eq i32 %63, 0
  br i1 %.not48, label %._crit_edge, label %.lr.ph

._crit_edge:                                      ; preds = %.critedge2, %5
  tail call void (i32, ptr, ...) @zend_error_noreturn(i32 noundef 1, ptr noundef nonnull @.str.4) #17
  unreachable
}